target datalayout = "e-m:e-p270:32:32-p271:32:32-p272:64:64-i64:64-i128:128-f80:128-n8:16:32:64-S128"
target triple = "x86_64-pc-linux-gnu"

%struct.slurm_conf_t = type { i64, ptr, i16, ptr, ptr, ptr, ptr, ptr, i16, ptr, ptr, ptr, ptr, ptr, ptr, ptr, i16, ptr, ptr, ptr, ptr, i16, ptr, ptr, ptr, i64, ptr, ptr, ptr, ptr, i16, ptr, ptr, i16, i32, ptr, i32, ptr, i32, i32, ptr, ptr, i64, i64, ptr, i16, i16, ptr, i32, i32, ptr, i32, ptr, i32, i16, i16, i16, ptr, i16, i16, ptr, ptr, i32, i16, i16, ptr, i32, i16, ptr, ptr, ptr, ptr, i16, ptr, ptr, ptr, ptr, i32, ptr, ptr, ptr, ptr, i16, i16, ptr, i32, i32, i32, i16, i16, ptr, ptr, i16, ptr, ptr, i32, i32, i32, i32, i32, i64, i32, i32, i16, ptr, ptr, i32, ptr, ptr, ptr, i16, i32, ptr, ptr, i16, ptr, ptr, i32, i16, ptr, ptr, ptr, ptr, i32, i32, i16, i16, i32, ptr, i16, ptr, i32, i32, i32, i32, i32, i32, ptr, i16, ptr, ptr, i32, i16, ptr, i32, i16, i16, ptr, ptr, ptr, i16, ptr, ptr, ptr, ptr, i16, i16, ptr, i16, ptr, i16, ptr, i16, ptr, i16, ptr, ptr, ptr, ptr, i16, ptr, ptr, ptr, i32, ptr, i32, ptr, ptr, i16, ptr, ptr, i32, i16, ptr, ptr, i16, i16, ptr, i16, ptr, ptr, ptr, i32, ptr, i16, i16, ptr, ptr, ptr, ptr, ptr, ptr, ptr, ptr, i16, i32, i16, ptr, ptr, ptr, ptr, i32, ptr, ptr, ptr, i16, ptr, ptr, ptr, i16, ptr, i16, ptr, i16, i16, ptr }
%union.pthread_mutex_t = type { %struct.__pthread_mutex_s }
%struct.__pthread_mutex_s = type { i32, i32, i32, i32, i32, i16, i16, %struct.__pthread_internal_list }
%struct.__pthread_internal_list = type { ptr, ptr }
%struct.slurm_cred_ops_t = type { ptr, ptr, ptr, ptr, ptr, ptr }

@.str = private unnamed_addr constant [5 x i8] c"cred\00", align 1
@.str.1 = private unnamed_addr constant [19 x i8] c"SLURM_CONFIG_FETCH\00", align 1
@slurm_conf = external global %struct.slurm_conf_t, align 8
@.str.2 = private unnamed_addr constant [13 x i8] c"cred_expire=\00", align 1
@cred_expire = internal global i32 120, align 4
@.str.3 = private unnamed_addr constant [32 x i8] c"AuthInfo=cred_expire=%d invalid\00", align 1
@.str.4 = private unnamed_addr constant [17 x i8] c"enable_nss_slurm\00", align 1
@enable_nss_slurm = internal global i8 0, align 1
@.str.5 = private unnamed_addr constant [18 x i8] c"disable_send_gids\00", align 1
@enable_send_gids = internal global i8 1, align 1
@.str.6 = private unnamed_addr constant [6 x i8] c"auth/\00", align 1
@.str.7 = private unnamed_addr constant [6 x i8] c"cred/\00", align 1
@.str.8 = private unnamed_addr constant [6 x i8] c"slurm\00", align 1
@.str.9 = private unnamed_addr constant [11 x i8] c"auth/slurm\00", align 1
@.str.10 = private unnamed_addr constant [8 x i8] c"cred/%s\00", align 1
@g_context_lock = internal global %union.pthread_mutex_t zeroinitializer, align 8
@.str.11 = private unnamed_addr constant [29 x i8] c"%s: pthread_mutex_lock(): %m\00", align 1
@__func__.cred_g_init = private unnamed_addr constant [12 x i8] c"cred_g_init\00", align 1
@cred_restart_time = internal global i64 0, align 8
@g_context = internal global ptr null, align 8
@ops = internal global %struct.slurm_cred_ops_t zeroinitializer, align 8
@syms = internal global [6 x ptr] [ptr @.str.45, ptr @.str.46, ptr @.str.47, ptr @.str.48, ptr @.str.49, ptr @.str.50], align 16
@.str.12 = private unnamed_addr constant [32 x i8] c"cannot create %s context for %s\00", align 1
@.str.13 = private unnamed_addr constant [31 x i8] c"%s: pthread_mutex_unlock(): %m\00", align 1

; Function Attrs: inlinehint nounwind willreturn memory(read) uwtable
define available_externally i32 @atoi(ptr noundef nonnull %0) #4 {
  %2 = alloca ptr, align 8
  store ptr %0, ptr %2, align 8
  %3 = load ptr, ptr %2, align 8
  %4 = call i64 @strtol(ptr noundef %3, ptr noundef null, i32 noundef 10) #9
  %5 = trunc i64 %4 to i32
  ret i32 %5
}

; Function Attrs: nounwind uwtable
define dso_local i32 @cred_g_init() #0 {
  %1 = alloca ptr, align 8
  %2 = alloca ptr, align 8
  %3 = alloca i32, align 4
  %4 = alloca ptr, align 8
  %5 = alloca i32, align 4
  %6 = alloca i32, align 4
  call void @llvm.lifetime.start.p0(i64 8, ptr %1) #9
  call void @llvm.lifetime.start.p0(i64 8, ptr %2) #9
  store ptr @.str, ptr %2, align 8
  call void @llvm.lifetime.start.p0(i64 4, ptr %3) #9
  store i32 0, ptr %3, align 4
  call void @llvm.lifetime.start.p0(i64 8, ptr %4) #9
  store ptr null, ptr %4, align 8
  %7 = call ptr @getenv(ptr noundef @.str.1) #9
  %8 = icmp ne ptr %7, null
  br i1 %8, label %9, label %10

9:                                                ; preds = %0
  call void @slurm_xfree(ptr noundef getelementptr inbounds nuw (%struct.slurm_conf_t, ptr @slurm_conf, i32 0, i32 40))
  br label %86

10:                                               ; preds = %0
  %11 = load ptr, ptr getelementptr inbounds nuw (%struct.slurm_conf_t, ptr @slurm_conf, i32 0, i32 18), align 8
  %12 = call ptr @xstrstr(ptr noundef %11, ptr noundef @.str.2)
  store ptr %12, ptr %1, align 8
  %13 = icmp ne ptr %12, null
  br i1 %13, label %14, label %24

14:                                               ; preds = %10
  %15 = load ptr, ptr %1, align 8
  %16 = getelementptr inbounds i8, ptr %15, i64 12
  %17 = call i32 @atoi(ptr noundef %16) #10
  store i32 %17, ptr @cred_expire, align 4
  %18 = load i32, ptr @cred_expire, align 4
  %19 = icmp slt i32 %18, 5
  br i1 %19, label %20, label %23

20:                                               ; preds = %14
  %21 = load i32, ptr @cred_expire, align 4
  %22 = call i32 (ptr, ...) @error(ptr noundef @.str.3, i32 noundef %21)
  store i32 120, ptr @cred_expire, align 4
  br label %23

23:                                               ; preds = %20, %14
  br label %24

24:                                               ; preds = %23, %10
  %25 = load ptr, ptr getelementptr inbounds nuw (%struct.slurm_conf_t, ptr @slurm_conf, i32 0, i32 90), align 8
  %26 = call ptr @xstrcasestr(ptr noundef %25, ptr noundef @.str.4)
  %27 = icmp ne ptr %26, null
  br i1 %27, label %28, label %29

28:                                               ; preds = %24
  store i8 1, ptr @enable_nss_slurm, align 1
  br label %35

29:                                               ; preds = %24
  %30 = load ptr, ptr getelementptr inbounds nuw (%struct.slurm_conf_t, ptr @slurm_conf, i32 0, i32 90), align 8
  %31 = call ptr @xstrcasestr(ptr noundef %30, ptr noundef @.str.5)
  %32 = icmp ne ptr %31, null
  br i1 %32, label %33, label %34

33:                                               ; preds = %29
  store i8 0, ptr @enable_send_gids, align 1
  br label %34

34:                                               ; preds = %33, %29
  br label %35

35:                                               ; preds = %34, %28
  %36 = load ptr, ptr getelementptr inbounds nuw (%struct.slurm_conf_t, ptr @slurm_conf, i32 0, i32 40), align 8
  store ptr %36, ptr %4, align 8
  %37 = load ptr, ptr %4, align 8
  %38 = call i32 @xstrncmp(ptr noundef %37, ptr noundef @.str.6, i64 noundef 5)
  %39 = icmp ne i32 %38, 0
  br i1 %39, label %40, label %44

40:                                               ; preds = %35
  %41 = load ptr, ptr %4, align 8
  %42 = call i32 @xstrncmp(ptr noundef %41, ptr noundef @.str.7, i64 noundef 5)
  %43 = icmp ne i32 %42, 0
  br i1 %43, label %47, label %44

44:                                               ; preds = %40, %35
  %45 = load ptr, ptr %4, align 8
  %46 = getelementptr inbounds i8, ptr %45, i64 5
  store ptr %46, ptr %4, align 8
  br label %47

47:                                               ; preds = %44, %40
  %48 = load ptr, ptr %4, align 8
  %49 = call i32 @xstrcmp(ptr noundef %48, ptr noundef @.str.8)
  %50 = icmp ne i32 %49, 0
  br i1 %50, label %53, label %51

51:                                               ; preds = %47
  %52 = call ptr @xstrdup(ptr noundef @.str.9)
  store ptr %52, ptr %4, align 8
  br label %56

53:                                               ; preds = %47
  %54 = load ptr, ptr %4, align 8
  %55 = call ptr (ptr, ...) @xstrdup_printf(ptr noundef @.str.10, ptr noundef %54)
  store ptr %55, ptr %4, align 8
  br label %56

56:                                               ; preds = %53, %51
  br label %57

57:                                               ; preds = %56
  call void @llvm.lifetime.start.p0(i64 4, ptr %5) #9
  %58 = call i32 @pthread_mutex_lock(ptr noundef @g_context_lock) #9
  store i32 %58, ptr %5, align 4
  %59 = load i32, ptr %5, align 4
  %60 = icmp ne i32 %59, 0
  br i1 %60, label %61, label %64

61:                                               ; preds = %57
  %62 = load i32, ptr %5, align 4
  %63 = call ptr @__errno_location() #11
  store i32 %62, ptr %63, align 4
  call void (ptr, ...) @fatal_abort(ptr noundef @.str.11, ptr noundef @__func__.cred_g_init) #12
  unreachable

64:                                               ; preds = %57
  call void @llvm.lifetime.end.p0(i64 4, ptr %5) #9
  br label %65

65:                                               ; preds = %64
  br label %66

66:                                               ; preds = %65
  %67 = load i64, ptr @cred_restart_time, align 8
  %68 = icmp eq i64 %67, 0
  br i1 %68, label %69, label %71

69:                                               ; preds = %66
  %70 = call i64 @time(ptr noundef null) #9
  store i64 %70, ptr @cred_restart_time, align 8
  br label %71

71:                                               ; preds = %69, %66
  %72 = load ptr, ptr @g_context, align 8
  %73 = icmp ne ptr %72, null
  br i1 %73, label %74, label %75

74:                                               ; preds = %71
  br label %86

75:                                               ; preds = %71
  %76 = load ptr, ptr %2, align 8
  %77 = load ptr, ptr %4, align 8
  %78 = call ptr @plugin_context_create(ptr noundef %76, ptr noundef %77, ptr noundef @ops, ptr noundef @syms, i64 noundef 48)
  store ptr %78, ptr @g_context, align 8
  %79 = load ptr, ptr @g_context, align 8
  %80 = icmp ne ptr %79, null
  br i1 %80, label %85, label %81

81:                                               ; preds = %75
  %82 = load ptr, ptr %2, align 8
  %83 = load ptr, ptr getelementptr inbounds nuw (%struct.slurm_conf_t, ptr @slurm_conf, i32 0, i32 40), align 8
  %84 = call i32 (ptr, ...) @error(ptr noundef @.str.12, ptr noundef %82, ptr noundef %83)
  store i32 -1, ptr %3, align 4
  br label %86

85:                                               ; preds = %75
  br label %86

86:                                               ; preds = %85, %81, %74, %9
  br label %87

87:                                               ; preds = %86
  call void @llvm.lifetime.start.p0(i64 4, ptr %6) #9
  %88 = call i32 @pthread_mutex_unlock(ptr noundef @g_context_lock) #9
  store i32 %88, ptr %6, align 4
  %89 = load i32, ptr %6, align 4
  %90 = icmp ne i32 %89, 0
  br i1 %90, label %91, label %94

91:                                               ; preds = %87
  %92 = load i32, ptr %6, align 4
  %93 = call ptr @__errno_location() #11
  store i32 %92, ptr %93, align 4
  call void (ptr, ...) @fatal_abort(ptr noundef @.str.13, ptr noundef @__func__.cred_g_init) #12
  unreachable

94:                                               ; preds = %87
  call void @llvm.lifetime.end.p0(i64 4, ptr %6) #9
  br label %95

95:                                               ; preds = %94
  br label %96

96:                                               ; preds = %95
  call void @slurm_xfree(ptr noundef %4)
  %97 = load i32, ptr %3, align 4
  call void @llvm.lifetime.end.p0(i64 8, ptr %4) #9
  call void @llvm.lifetime.end.p0(i64 4, ptr %3) #9
  call void @llvm.lifetime.end.p0(i64 8, ptr %2) #9
  call void @llvm.lifetime.end.p0(i64 8, ptr %1) #9
  ret i32 %97
}