; Function Attrs: nounwind uwtable
define dso_local range(i32 -1, 1) i32 @cred_g_init() local_unnamed_addr #0 {
  %1 = alloca ptr, align 8
  call void @llvm.lifetime.start.p0(i64 8, ptr nonnull %1) #11
  store ptr null, ptr %1, align 8
  %2 = tail call ptr @getenv(ptr noundef nonnull @.str.1) #11
  %.not = icmp eq ptr %2, null
  br i1 %.not, label %4, label %3

3:                                                ; preds = %0
  tail call void @slurm_xfree(ptr noundef nonnull getelementptr inbounds nuw (i8, ptr @slurm_conf, i64 304)) #11
  br label %51

4:                                                ; preds = %0
  %5 = load ptr, ptr getelementptr inbounds nuw (i8, ptr @slurm_conf, i64 144), align 8
  %6 = tail call ptr @xstrstr(ptr noundef %5, ptr noundef nonnull @.str.2) #11
  %.not11 = icmp eq ptr %6, null
  br i1 %.not11, label %14, label %7

7:                                                ; preds = %4
  %8 = getelementptr inbounds nuw i8, ptr %6, i64 12
  %9 = tail call i64 @strtol(ptr noundef nonnull captures(none) %8, ptr noundef null, i32 noundef 10) #11
  %10 = trunc i64 %9 to i32
  store i32 %10, ptr @cred_expire, align 4
  %11 = icmp slt i32 %10, 5
  br i1 %11, label %12, label %14

12:                                               ; preds = %7
  %13 = tail call i32 (ptr, ...) @error(ptr noundef nonnull @.str.3, i32 noundef %10) #11
  store i32 120, ptr @cred_expire, align 4
  br label %14

14:                                               ; preds = %7, %12, %4
  %15 = load ptr, ptr getelementptr inbounds nuw (i8, ptr @slurm_conf, i64 608), align 8
  %16 = tail call ptr @xstrcasestr(ptr noundef %15, ptr noundef nonnull @.str.4) #11
  %.not12 = icmp eq ptr %16, null
  br i1 %.not12, label %17, label %.sink.split

17:                                               ; preds = %14
  %18 = load ptr, ptr getelementptr inbounds nuw (i8, ptr @slurm_conf, i64 608), align 8
  %19 = tail call ptr @xstrcasestr(ptr noundef %18, ptr noundef nonnull @.str.5) #11
  %.not13 = icmp eq ptr %19, null
  br i1 %.not13, label %20, label %.sink.split

.sink.split:                                      ; preds = %17, %14
  %enable_send_gids.sink = phi ptr [ @enable_nss_slurm, %14 ], [ @enable_send_gids, %17 ]
  store i1 true, ptr %enable_send_gids.sink, align 1
  br label %20

20:                                               ; preds = %.sink.split, %17
  %21 = load ptr, ptr getelementptr inbounds nuw (i8, ptr @slurm_conf, i64 304), align 8
  %22 = tail call i32 @xstrncmp(ptr noundef %21, ptr noundef nonnull @.str.6, i64 noundef 5) #11
  %.not14 = icmp eq i32 %22, 0
  br i1 %.not14, label %25, label %23

23:                                               ; preds = %20
  %24 = tail call i32 @xstrncmp(ptr noundef %21, ptr noundef nonnull @.str.7, i64 noundef 5) #11
  %.not15 = icmp eq i32 %24, 0
  br i1 %.not15, label %25, label %27

25:                                               ; preds = %23, %20
  %26 = getelementptr inbounds nuw i8, ptr %21, i64 5
  br label %27

27:                                               ; preds = %25, %23
  %28 = phi ptr [ %26, %25 ], [ %21, %23 ]
  %29 = tail call i32 @xstrcmp(ptr noundef %28, ptr noundef nonnull @.str.8) #11
  %.not16 = icmp eq i32 %29, 0
  br i1 %.not16, label %30, label %32

30:                                               ; preds = %27
  %31 = tail call ptr @xstrdup(ptr noundef nonnull @.str.9) #11
  br label %34

32:                                               ; preds = %27
  %33 = tail call ptr (ptr, ...) @xstrdup_printf(ptr noundef nonnull @.str.10, ptr noundef %28) #11
  br label %34

34:                                               ; preds = %30, %32
  %35 = phi ptr [ %31, %30 ], [ %33, %32 ]
  store ptr %35, ptr %1, align 8
  %36 = tail call i32 @pthread_mutex_lock(ptr noundef nonnull @g_context_lock) #11
  %.not17 = icmp eq i32 %36, 0
  br i1 %.not17, label %39, label %37

37:                                               ; preds = %34
  %38 = tail call ptr @__errno_location() #12
  store i32 %36, ptr %38, align 4
  tail call void (ptr, ...) @fatal_abort(ptr noundef nonnull @.str.11, ptr noundef nonnull @__func__.cred_g_init) #13
  unreachable

39:                                               ; preds = %34
  %40 = load i64, ptr @cred_restart_time, align 8
  %41 = icmp eq i64 %40, 0
  br i1 %41, label %42, label %44

42:                                               ; preds = %39
  %43 = tail call i64 @time(ptr noundef null) #11
  store i64 %43, ptr @cred_restart_time, align 8
  br label %44

44:                                               ; preds = %42, %39
  %45 = load ptr, ptr @g_context, align 8
  %.not18 = icmp eq ptr %45, null
  br i1 %.not18, label %46, label %51

46:                                               ; preds = %44
  %47 = tail call ptr @plugin_context_create(ptr noundef nonnull @.str, ptr noundef %35, ptr noundef nonnull @ops, ptr noundef nonnull @syms, i64 noundef 48) #11
  store ptr %47, ptr @g_context, align 8
  %.not19 = icmp eq ptr %47, null
  br i1 %.not19, label %48, label %51

48:                                               ; preds = %46
  %49 = load ptr, ptr getelementptr inbounds nuw (i8, ptr @slurm_conf, i64 304), align 8
  %50 = tail call i32 (ptr, ...) @error(ptr noundef nonnull @.str.12, ptr noundef nonnull @.str, ptr noundef %49) #11
  br label %51

51:                                               ; preds = %3, %48, %44, %46
  %.0 = phi i32 [ 0, %3 ], [ 0, %44 ], [ 0, %46 ], [ -1, %48 ]
  %52 = tail call i32 @pthread_mutex_unlock(ptr noundef nonnull @g_context_lock) #11
  %.not20 = icmp eq i32 %52, 0
  br i1 %.not20, label %55, label %53

53:                                               ; preds = %51
  %54 = tail call ptr @__errno_location() #12
  store i32 %52, ptr %54, align 4
  tail call void (ptr, ...) @fatal_abort(ptr noundef nonnull @.str.13, ptr noundef nonnull @__func__.cred_g_init) #13
  unreachable

55:                                               ; preds = %51
  call void @slurm_xfree(ptr noundef nonnull %1) #11
  call void @llvm.lifetime.end.p0(i64 8, ptr nonnull %1) #11
  ret i32 %.0
}